(lp0
cnumpy.core.multiarray
_reconstruct
p1
(cnumpy
ndarray
p2
(I0
tp3
S'b'
p4
tp5
Rp6
(I1
(I4
I1
tp7
cnumpy
dtype
p8
(S'f8'
p9
I0
I1
tp10
Rp11
(I3
S'<'
p12
NNNI-1
I-1
I0
tp13
bI01
S'OlH\x90\xe9\x1c\xca?\x9ena\x95V\x8d\xaf?\x88\xcc\x8d8\x93y\xe9?\xc9cd?\x12\x08\xee?'
p14
tp15
ba.